; Function Attrs: mustprogress uwtable
define void @_ZN9grpc_core31CreateHttpRequestSSLCredentialsEv(ptr noalias nocapture writeonly sret(%"class.grpc_core::RefCountedPtr") align 8 %agg.result) local_unnamed_addr #3 personality ptr @__gxx_personality_v0 {
entry:
  %0 = load atomic i8, ptr @_ZGVZN9grpc_core31CreateHttpRequestSSLCredentialsEvE5creds acquire, align 8
  %guard.uninitialized = icmp eq i8 %0, 0
  br i1 %guard.uninitialized, label %init.check, label %init.end, !prof !4

init.check:                                       ; preds = %entry
  %1 = tail call i32 @__cxa_guard_acquire(ptr nonnull @_ZGVZN9grpc_core31CreateHttpRequestSSLCredentialsEvE5creds) #19
  %tobool.not = icmp eq i32 %1, 0
  br i1 %tobool.not, label %init.end, label %init

init:                                             ; preds = %init.check
  %call = invoke noalias noundef nonnull dereferenceable(16) ptr @_Znwm(i64 noundef 16) #20
          to label %invoke.cont2 unwind label %lpad

invoke.cont2:                                     ; preds = %init
  %refs_.i.i.i = getelementptr inbounds i8, ptr %call, i64 8
  store i64 1, ptr %refs_.i.i.i, align 8
  store ptr getelementptr inbounds ({ [9 x ptr] }, ptr @_ZTVN9grpc_core12_GLOBAL__N_125HttpRequestSSLCredentialsE, i64 0, i32 0, i64 2), ptr %call, align 8
  store ptr %call, ptr @_ZZN9grpc_core31CreateHttpRequestSSLCredentialsEvE5creds, align 8
  tail call void @__cxa_guard_release(ptr nonnull @_ZGVZN9grpc_core31CreateHttpRequestSSLCredentialsEvE5creds) #19
  br label %init.end

init.end:                                         ; preds = %invoke.cont2, %init.check, %entry
  %2 = load ptr, ptr @_ZZN9grpc_core31CreateHttpRequestSSLCredentialsEvE5creds, align 8
  tail call void @llvm.experimental.noalias.scope.decl(metadata !5)
  %refs_.i.i = getelementptr inbounds i8, ptr %2, i64 8
  %3 = atomicrmw add ptr %refs_.i.i, i64 1 monotonic, align 8, !noalias !5
  store ptr %2, ptr %agg.result, align 8, !alias.scope !5
  ret void

lpad:                                             ; preds = %init
  %4 = landingpad { ptr, i32 }
          cleanup
  tail call void @__cxa_guard_abort(ptr nonnull @_ZGVZN9grpc_core31CreateHttpRequestSSLCredentialsEvE5creds) #19
  resume { ptr, i32 } %4
}